
ATTINY85.elf:     file format elf32-avr

Sections:
Idx Name          Size      VMA       LMA       File off  Algn
  0 .text         0000089c  00000000  00000000  00000094  2**1
                  CONTENTS, ALLOC, LOAD, READONLY, CODE
  1 .data         00000100  00800060  0000089c  00000930  2**0
                  CONTENTS, ALLOC, LOAD, DATA
  2 .bss          0000007e  00800160  00800160  00000a30  2**0
                  ALLOC
  3 .comment      00000030  00000000  00000000  00000a30  2**0
                  CONTENTS, READONLY
  4 .note.gnu.avr.deviceinfo 0000003c  00000000  00000000  00000a60  2**2
                  CONTENTS, READONLY
  5 .debug_aranges 00000178  00000000  00000000  00000aa0  2**3
                  CONTENTS, READONLY, DEBUGGING
  6 .debug_info   0000177f  00000000  00000000  00000c18  2**0
                  CONTENTS, READONLY, DEBUGGING
  7 .debug_abbrev 000008d6  00000000  00000000  00002397  2**0
                  CONTENTS, READONLY, DEBUGGING
  8 .debug_line   00000e04  00000000  00000000  00002c6d  2**0
                  CONTENTS, READONLY, DEBUGGING
  9 .debug_frame  0000030c  00000000  00000000  00003a74  2**2
                  CONTENTS, READONLY, DEBUGGING
 10 .debug_str    000007f1  00000000  00000000  00003d80  2**0
                  CONTENTS, READONLY, DEBUGGING
 11 .debug_loc    0000079b  00000000  00000000  00004571  2**0
                  CONTENTS, READONLY, DEBUGGING
 12 .debug_ranges 00000108  00000000  00000000  00004d0c  2**0
                  CONTENTS, READONLY, DEBUGGING

Disassembly of section .text:

00000000 <__vectors>:
   0:	0e c0       	rjmp	.+28     	; 0x1e <__ctors_end>
   2:	28 c0       	rjmp	.+80     	; 0x54 <__bad_interrupt>
   4:	27 c0       	rjmp	.+78     	; 0x54 <__bad_interrupt>
   6:	77 c1       	rjmp	.+750    	; 0x2f6 <__vector_3>
   8:	25 c0       	rjmp	.+74     	; 0x54 <__bad_interrupt>
   a:	dc c1       	rjmp	.+952    	; 0x3c4 <__vector_5>
   c:	23 c0       	rjmp	.+70     	; 0x54 <__bad_interrupt>
   e:	22 c0       	rjmp	.+68     	; 0x54 <__bad_interrupt>
  10:	6b c2       	rjmp	.+1238   	; 0x4e8 <__vector_8>
  12:	20 c0       	rjmp	.+64     	; 0x54 <__bad_interrupt>
  14:	1f c0       	rjmp	.+62     	; 0x54 <__bad_interrupt>
  16:	1e c0       	rjmp	.+60     	; 0x54 <__bad_interrupt>
  18:	1d c0       	rjmp	.+58     	; 0x54 <__bad_interrupt>
  1a:	1c c0       	rjmp	.+56     	; 0x54 <__bad_interrupt>
  1c:	1b c0       	rjmp	.+54     	; 0x54 <__bad_interrupt>

0000001e <__ctors_end>:
  1e:	11 24       	eor	r1, r1
  20:	1f be       	out	0x3f, r1	; 63
  22:	cf e5       	ldi	r28, 0x5F	; 95
  24:	d2 e0       	ldi	r29, 0x02	; 2
  26:	de bf       	out	0x3e, r29	; 62
  28:	cd bf       	out	0x3d, r28	; 61

0000002a <__do_copy_data>:
  2a:	11 e0       	ldi	r17, 0x01	; 1
  2c:	a0 e6       	ldi	r26, 0x60	; 96
  2e:	b0 e0       	ldi	r27, 0x00	; 0
  30:	ec e9       	ldi	r30, 0x9C	; 156
  32:	f8 e0       	ldi	r31, 0x08	; 8
  34:	02 c0       	rjmp	.+4      	; 0x3a <__do_copy_data+0x10>
  36:	05 90       	lpm	r0, Z+
  38:	0d 92       	st	X+, r0
  3a:	a0 36       	cpi	r26, 0x60	; 96
  3c:	b1 07       	cpc	r27, r17
  3e:	d9 f7       	brne	.-10     	; 0x36 <__do_copy_data+0xc>

00000040 <__do_clear_bss>:
  40:	21 e0       	ldi	r18, 0x01	; 1
  42:	a0 e6       	ldi	r26, 0x60	; 96
  44:	b1 e0       	ldi	r27, 0x01	; 1
  46:	01 c0       	rjmp	.+2      	; 0x4a <.do_clear_bss_start>

00000048 <.do_clear_bss_loop>:
  48:	1d 92       	st	X+, r1

0000004a <.do_clear_bss_start>:
  4a:	ae 3d       	cpi	r26, 0xDE	; 222
  4c:	b2 07       	cpc	r27, r18
  4e:	e1 f7       	brne	.-8      	; 0x48 <.do_clear_bss_loop>
  50:	7b d3       	rcall	.+1782   	; 0x748 <main>
  52:	22 c4       	rjmp	.+2116   	; 0x898 <_exit>

00000054 <__bad_interrupt>:
  54:	d5 cf       	rjmp	.-86     	; 0x0 <__vectors>

00000056 <init_timer1_compare>:
    {
        lenght++;
        _string++;
    }
    return lenght;
}
  56:	83 e8       	ldi	r24, 0x83	; 131
  58:	80 bf       	out	0x30, r24	; 48
  5a:	08 95       	ret

0000005c <start_timer1_compareA>:
  5c:	89 b7       	in	r24, 0x39	; 57
  5e:	80 64       	ori	r24, 0x40	; 64
  60:	89 bf       	out	0x39, r24	; 57
  62:	08 95       	ret

00000064 <baud_setup>:
  64:	9c 01       	movw	r18, r24
  66:	40 e0       	ldi	r20, 0x00	; 0
  68:	50 e0       	ldi	r21, 0x00	; 0
  6a:	60 e9       	ldi	r22, 0x90	; 144
  6c:	70 ed       	ldi	r23, 0xD0	; 208
  6e:	83 e0       	ldi	r24, 0x03	; 3
  70:	90 e0       	ldi	r25, 0x00	; 0
  72:	da d3       	rcall	.+1972   	; 0x828 <__udivmodsi4>
  74:	2d bd       	out	0x2d, r18	; 45
  76:	10 92 d9 01 	sts	0x01D9, r1	; 0x8001d9 <tx_busy>
  7a:	10 92 d7 01 	sts	0x01D7, r1	; 0x8001d7 <rx_busy>
  7e:	08 95       	ret

00000080 <init_timer0_ovf>:
  80:	1a bc       	out	0x2a, r1	; 42
  82:	83 b7       	in	r24, 0x33	; 51
  84:	85 60       	ori	r24, 0x05	; 5
  86:	83 bf       	out	0x33, r24	; 51
  88:	88 ef       	ldi	r24, 0xF8	; 248
  8a:	82 bf       	out	0x32, r24	; 50
  8c:	10 92 d5 01 	sts	0x01D5, r1	; 0x8001d5 <ms_to_10ms>
  90:	08 95       	ret

00000092 <start_timer0_ovf>:
  92:	89 b7       	in	r24, 0x39	; 57
  94:	82 60       	ori	r24, 0x02	; 2
  96:	89 bf       	out	0x39, r24	; 57
  98:	08 95       	ret

0000009a <stop_timer0_ovf>:
  9a:	89 b7       	in	r24, 0x39	; 57
  9c:	8d 7f       	andi	r24, 0xFD	; 253
  9e:	89 bf       	out	0x39, r24	; 57
  a0:	08 95       	ret

000000a2 <port_setup>:
  a2:	8e e0       	ldi	r24, 0x0E	; 14
  a4:	87 bb       	out	0x17, r24	; 23
  a6:	81 e3       	ldi	r24, 0x31	; 49
  a8:	88 bb       	out	0x18, r24	; 24
  aa:	08 95       	ret

000000ac <go_to_sleep>:
  ac:	c1 98       	cbi	0x18, 1	; 24
  ae:	c3 98       	cbi	0x18, 3	; 24
  b0:	c2 98       	cbi	0x18, 2	; 24
  b2:	f8 94       	cli
  b4:	88 95       	sleep
  b6:	08 95       	ret

000000b8 <send_packet>:
  b8:	60 93 da 01 	sts	0x01DA, r22	; 0x8001da <msg_length>
  bc:	10 92 dc 01 	sts	0x01DC, r1	; 0x8001dc <tx_index>
  c0:	10 92 db 01 	sts	0x01DB, r1	; 0x8001db <bit_inviato>
  c4:	10 92 d8 01 	sts	0x01D8, r1	; 0x8001d8 <campioni_8_bit>
  c8:	81 e0       	ldi	r24, 0x01	; 1
  ca:	80 93 d9 01 	sts	0x01D9, r24	; 0x8001d9 <tx_busy>
  ce:	08 95       	ret

000000d0 <is_transmitting>:
  d0:	80 91 d9 01 	lds	r24, 0x01D9	; 0x8001d9 <tx_busy>
  d4:	08 95       	ret

000000d6 <tx_stop>:
  d6:	c1 98       	cbi	0x18, 1	; 24
  d8:	10 92 d9 01 	sts	0x01D9, r1	; 0x8001d9 <tx_busy>
  dc:	08 95       	ret

000000de <filtra_messaggio>:
  de:	88 23       	and	r24, r24
  e0:	29 f0       	breq	.+10     	; 0xec <filtra_messaggio+0xe>
  e2:	90 91 8b 01 	lds	r25, 0x018B	; 0x80018b <n_bit_alti>
  e6:	9f 5f       	subi	r25, 0xFF	; 255
  e8:	90 93 8b 01 	sts	0x018B, r25	; 0x80018b <n_bit_alti>
  ec:	90 91 d3 01 	lds	r25, 0x01D3	; 0x8001d3 <previous_bit>
  f0:	89 17       	cp	r24, r25
  f2:	69 f0       	breq	.+26     	; 0x10e <filtra_messaggio+0x30>
  f4:	90 91 d4 01 	lds	r25, 0x01D4	; 0x8001d4 <rampa>
  f8:	90 35       	cpi	r25, 0x50	; 80
  fa:	10 f0       	brcs	.+4      	; 0x100 <filtra_messaggio+0x22>
  fc:	2d e1       	ldi	r18, 0x1D	; 29
  fe:	01 c0       	rjmp	.+2      	; 0x102 <filtra_messaggio+0x24>
 100:	2b e0       	ldi	r18, 0x0B	; 11
 102:	92 0f       	add	r25, r18
 104:	90 93 d4 01 	sts	0x01D4, r25	; 0x8001d4 <rampa>
 108:	80 93 d3 01 	sts	0x01D3, r24	; 0x8001d3 <previous_bit>
 10c:	05 c0       	rjmp	.+10     	; 0x118 <filtra_messaggio+0x3a>
 10e:	80 91 d4 01 	lds	r24, 0x01D4	; 0x8001d4 <rampa>
 112:	8c 5e       	subi	r24, 0xEC	; 236
 114:	80 93 d4 01 	sts	0x01D4, r24	; 0x8001d4 <rampa>
 118:	80 91 d4 01 	lds	r24, 0x01D4	; 0x8001d4 <rampa>
 11c:	80 3a       	cpi	r24, 0xA0	; 160
 11e:	08 f4       	brcc	.+2      	; 0x122 <filtra_messaggio+0x44>
 120:	61 c0       	rjmp	.+194    	; 0x1e4 <filtra_messaggio+0x106>
 122:	20 91 93 01 	lds	r18, 0x0193	; 0x800193 <data_bit>
 126:	30 91 94 01 	lds	r19, 0x0194	; 0x800194 <data_bit+0x1>
 12a:	36 95       	lsr	r19
 12c:	27 95       	ror	r18
 12e:	30 93 94 01 	sts	0x0194, r19	; 0x800194 <data_bit+0x1>
 132:	20 93 93 01 	sts	0x0193, r18	; 0x800193 <data_bit>
 136:	90 91 8b 01 	lds	r25, 0x018B	; 0x80018b <n_bit_alti>
 13a:	95 30       	cpi	r25, 0x05	; 5
 13c:	28 f0       	brcs	.+10     	; 0x148 <filtra_messaggio+0x6a>
 13e:	30 68       	ori	r19, 0x80	; 128
 140:	30 93 94 01 	sts	0x0194, r19	; 0x800194 <data_bit+0x1>
 144:	20 93 93 01 	sts	0x0193, r18	; 0x800193 <data_bit>
 148:	80 5a       	subi	r24, 0xA0	; 160
 14a:	80 93 d4 01 	sts	0x01D4, r24	; 0x8001d4 <rampa>
 14e:	10 92 8b 01 	sts	0x018B, r1	; 0x80018b <n_bit_alti>
 152:	80 91 d0 01 	lds	r24, 0x01D0	; 0x8001d0 <header>
 156:	88 23       	and	r24, r24
 158:	a9 f1       	breq	.+106    	; 0x1c4 <filtra_messaggio+0xe6>
 15a:	80 91 d1 01 	lds	r24, 0x01D1	; 0x8001d1 <n_campioni>
 15e:	8f 5f       	subi	r24, 0xFF	; 255
 160:	80 93 d1 01 	sts	0x01D1, r24	; 0x8001d1 <n_campioni>
 164:	88 30       	cpi	r24, 0x08	; 8
 166:	70 f1       	brcs	.+92     	; 0x1c4 <filtra_messaggio+0xe6>
 168:	80 91 dd 01 	lds	r24, 0x01DD	; 0x8001dd <rx_length>
 16c:	81 11       	cpse	r24, r1
 16e:	0c c0       	rjmp	.+24     	; 0x188 <filtra_messaggio+0xaa>
 170:	80 91 94 01 	lds	r24, 0x0194	; 0x800194 <data_bit+0x1>
 174:	86 30       	cpi	r24, 0x06	; 6
 176:	19 f4       	brne	.+6      	; 0x17e <filtra_messaggio+0xa0>
 178:	80 93 dd 01 	sts	0x01DD, r24	; 0x8001dd <rx_length>
 17c:	21 c0       	rjmp	.+66     	; 0x1c0 <filtra_messaggio+0xe2>
 17e:	10 92 d0 01 	sts	0x01D0, r1	; 0x8001d0 <header>
 182:	10 92 d4 01 	sts	0x01D4, r1	; 0x8001d4 <rampa>
 186:	1c c0       	rjmp	.+56     	; 0x1c0 <filtra_messaggio+0xe2>
 188:	90 91 94 01 	lds	r25, 0x0194	; 0x800194 <data_bit+0x1>
 18c:	e0 91 9a 01 	lds	r30, 0x019A	; 0x80019a <cont>
 190:	81 e0       	ldi	r24, 0x01	; 1
 192:	8e 0f       	add	r24, r30
 194:	80 93 9a 01 	sts	0x019A, r24	; 0x80019a <cont>
 198:	f0 e0       	ldi	r31, 0x00	; 0
 19a:	e8 59       	subi	r30, 0x98	; 152
 19c:	fe 4f       	sbci	r31, 0xFE	; 254
 19e:	90 83       	st	Z, r25
 1a0:	87 30       	cpi	r24, 0x07	; 7
 1a2:	71 f4       	brne	.+28     	; 0x1c0 <filtra_messaggio+0xe2>
 1a4:	10 92 9a 01 	sts	0x019A, r1	; 0x80019a <cont>
 1a8:	80 91 6e 01 	lds	r24, 0x016E	; 0x80016e <buff_rx+0x6>
 1ac:	81 11       	cpse	r24, r1
 1ae:	04 c0       	rjmp	.+8      	; 0x1b8 <filtra_messaggio+0xda>
 1b0:	81 e0       	ldi	r24, 0x01	; 1
 1b2:	80 93 64 01 	sts	0x0164, r24	; 0x800164 <rx_done>
 1b6:	04 c0       	rjmp	.+8      	; 0x1c0 <filtra_messaggio+0xe2>
 1b8:	10 92 d0 01 	sts	0x01D0, r1	; 0x8001d0 <header>
 1bc:	10 92 d4 01 	sts	0x01D4, r1	; 0x8001d4 <rampa>
 1c0:	10 92 d1 01 	sts	0x01D1, r1	; 0x8001d1 <n_campioni>
 1c4:	80 91 93 01 	lds	r24, 0x0193	; 0x800193 <data_bit>
 1c8:	90 91 94 01 	lds	r25, 0x0194	; 0x800194 <data_bit+0x1>
 1cc:	85 3b       	cpi	r24, 0xB5	; 181
 1ce:	90 4f       	sbci	r25, 0xF0	; 240
 1d0:	49 f4       	brne	.+18     	; 0x1e4 <filtra_messaggio+0x106>
 1d2:	81 e0       	ldi	r24, 0x01	; 1
 1d4:	80 93 d0 01 	sts	0x01D0, r24	; 0x8001d0 <header>
 1d8:	10 92 d1 01 	sts	0x01D1, r1	; 0x8001d1 <n_campioni>
 1dc:	10 92 dd 01 	sts	0x01DD, r1	; 0x8001dd <rx_length>
 1e0:	10 92 64 01 	sts	0x0164, r1	; 0x800164 <rx_done>
 1e4:	08 95       	ret

000001e6 <is_timer10ms_expired>:
 1e6:	e8 2f       	mov	r30, r24
 1e8:	f0 e0       	ldi	r31, 0x00	; 0
 1ea:	ee 0f       	add	r30, r30
 1ec:	ff 1f       	adc	r31, r31
 1ee:	e4 57       	subi	r30, 0x74	; 116
 1f0:	fe 4f       	sbci	r31, 0xFE	; 254
 1f2:	20 81       	ld	r18, Z
 1f4:	31 81       	ldd	r19, Z+1	; 0x01
 1f6:	81 e0       	ldi	r24, 0x01	; 1
 1f8:	23 2b       	or	r18, r19
 1fa:	09 f0       	breq	.+2      	; 0x1fe <is_timer10ms_expired+0x18>
 1fc:	80 e0       	ldi	r24, 0x00	; 0
 1fe:	08 95       	ret

00000200 <set_timer10ms>:
 200:	e8 2f       	mov	r30, r24
 202:	f0 e0       	ldi	r31, 0x00	; 0
 204:	ee 0f       	add	r30, r30
 206:	ff 1f       	adc	r31, r31
 208:	e4 57       	subi	r30, 0x74	; 116
 20a:	fe 4f       	sbci	r31, 0xFE	; 254
 20c:	71 83       	std	Z+1, r23	; 0x01
 20e:	60 83       	st	Z, r22
 210:	08 95       	ret

00000212 <crc_calc_bytearray>:

BYTE crc_calc_bytearray(BYTE* array_to_transmit, BYTE length)
{
	BYTE crc =0x00;
	
	while (length--)
 212:	2f ef       	ldi	r18, 0xFF	; 255
 214:	26 0f       	add	r18, r22
 216:	66 23       	and	r22, r22
 218:	69 f0       	breq	.+26     	; 0x234 <crc_calc_bytearray+0x22>
 21a:	a8 2f       	mov	r26, r24
 21c:	b9 2f       	mov	r27, r25
 21e:	80 e0       	ldi	r24, 0x00	; 0
	{
		crc= crc8_table[crc ^ *array_to_transmit++];
 220:	ed 91       	ld	r30, X+
 222:	8e 27       	eor	r24, r30
 224:	e8 2f       	mov	r30, r24
 226:	f0 e0       	ldi	r31, 0x00	; 0
 228:	e0 5a       	subi	r30, 0xA0	; 160
 22a:	ff 4f       	sbci	r31, 0xFF	; 255
 22c:	80 81       	ld	r24, Z

BYTE crc_calc_bytearray(BYTE* array_to_transmit, BYTE length)
{
	BYTE crc =0x00;
	
	while (length--)
 22e:	21 50       	subi	r18, 0x01	; 1
 230:	b8 f7       	brcc	.-18     	; 0x220 <crc_calc_bytearray+0xe>
 232:	08 95       	ret
}*/


BYTE crc_calc_bytearray(BYTE* array_to_transmit, BYTE length)
{
	BYTE crc =0x00;
 234:	80 e0       	ldi	r24, 0x00	; 0
		crc= crc8_table[crc ^ *array_to_transmit++];
		
	}
	return crc;

}
 236:	08 95       	ret

00000238 <IsBtnPressed>:

BYTE IsBtnPressed(void)
{
    if (BTN_PRESSED)
 238:	86 b3       	in	r24, 0x16	; 22
 23a:	82 95       	swap	r24
 23c:	81 70       	andi	r24, 0x01	; 1
        return PREMUTO;
    else
        return RILASCIATO;
}
 23e:	91 e0       	ldi	r25, 0x01	; 1
 240:	89 27       	eor	r24, r25
 242:	08 95       	ret

00000244 <prepara_adc>:
void prepara_adc()
{
	ADCSRA |=1<< ADEN;  //accendo adc
 244:	37 9a       	sbi	0x06, 7	; 6
	ADMUX &= ~(1<<REFS0);
 246:	3e 98       	cbi	0x07, 6	; 7
	ADMUX &= ~(1<<REFS1); //reference voltage = Vcc, AREF disconnected
 248:	3f 98       	cbi	0x07, 7	; 7
	ADMUX |= ((1<<MUX3) | (1<<MUX2)); 
 24a:	87 b1       	in	r24, 0x07	; 7
 24c:	8c 60       	ori	r24, 0x0C	; 12
 24e:	87 b9       	out	0x07, r24	; 7
	ADMUX &= ~(1<<MUX1);
 250:	39 98       	cbi	0x07, 1	; 7
	ADMUX &= ~(1<<MUX0);  //canale 1100 =Vbg (1.1V su attiny85)
 252:	38 98       	cbi	0x07, 0	; 7
	
	//abilito interrupt flag
	ADCSRA |= 1<<ADIE;
 254:	33 9a       	sbi	0x06, 3	; 6
}


void set_timer1ms(BYTE timer, WORD value)
{
	timer_1ms_array[timer]= value;
 256:	82 e0       	ldi	r24, 0x02	; 2
 258:	90 e0       	ldi	r25, 0x00	; 0
 25a:	90 93 99 01 	sts	0x0199, r25	; 0x800199 <timer_1ms_array+0x1>
 25e:	80 93 98 01 	sts	0x0198, r24	; 0x800198 <timer_1ms_array>
        return 1;
}

BOOL is_timer1ms_expired(BYTE timer)
{
	if (timer_1ms_array[timer])
 262:	80 91 98 01 	lds	r24, 0x0198	; 0x800198 <timer_1ms_array>
 266:	90 91 99 01 	lds	r25, 0x0199	; 0x800199 <timer_1ms_array+0x1>
	
	//abilito interrupt flag
	ADCSRA |= 1<<ADIE;
	
	set_timer1ms(TIMER_1MS_CICLO, TIME_2MS); //attendo 2ms per assestamento Vbg
	while(!is_timer1ms_expired(TIMER_1MS_CICLO))
 26a:	89 2b       	or	r24, r25
 26c:	d1 f7       	brne	.-12     	; 0x262 <__stack+0x3>
	{
		
	}
	
	//avvio ADC
	n_conversioni_adc=0;
 26e:	10 92 d2 01 	sts	0x01D2, r1	; 0x8001d2 <n_conversioni_adc>
	battery_voltage=0;
 272:	10 92 67 01 	sts	0x0167, r1	; 0x800167 <battery_voltage+0x1>
 276:	10 92 66 01 	sts	0x0166, r1	; 0x800166 <battery_voltage>
	conversione_terminata=0;
 27a:	10 92 9b 01 	sts	0x019B, r1	; 0x80019b <conversione_terminata>
	ADCSRA |= 1<<ADSC;
 27e:	36 9a       	sbi	0x06, 6	; 6
 280:	08 95       	ret

00000282 <calcola_tensione_batteria>:
{
	BYTE esci_loop=FALSE;
	BYTE real_battery_voltage=0;
	while(TRUE)
	{
		esci_loop= conversione_terminata;
 282:	80 91 9b 01 	lds	r24, 0x019B	; 0x80019b <conversione_terminata>
		if (esci_loop)
 286:	88 23       	and	r24, r24
 288:	e1 f3       	breq	.-8      	; 0x282 <calcola_tensione_batteria>
		{
			battery_voltage = battery_voltage/32;
 28a:	80 91 66 01 	lds	r24, 0x0166	; 0x800166 <battery_voltage>
 28e:	90 91 67 01 	lds	r25, 0x0167	; 0x800167 <battery_voltage+0x1>
 292:	96 95       	lsr	r25
 294:	87 95       	ror	r24
 296:	92 95       	swap	r25
 298:	82 95       	swap	r24
 29a:	8f 70       	andi	r24, 0x0F	; 15
 29c:	89 27       	eor	r24, r25
 29e:	9f 70       	andi	r25, 0x0F	; 15
 2a0:	89 27       	eor	r24, r25
 2a2:	90 93 67 01 	sts	0x0167, r25	; 0x800167 <battery_voltage+0x1>
 2a6:	80 93 66 01 	sts	0x0166, r24	; 0x800166 <battery_voltage>
			/*faro i conti su 3,1v, VBG pi√π bassa, cio 1V per attiny85, quindi 1*1023/3,1=330  +10 perch√® se no  mi becca anche alcuni 3.2 e 3.3..*/
			//a tre voltre avrei Vbg*1023/3 = 443,  a 4,3V avrei 310, a 5v 265
			//mappo quindi  la scala 310-443 in 4.3-3
			if (battery_voltage>340)
 2aa:	85 35       	cpi	r24, 0x55	; 85
 2ac:	21 e0       	ldi	r18, 0x01	; 1
 2ae:	92 07       	cpc	r25, r18
 2b0:	f0 f4       	brcc	.+60     	; 0x2ee <calcola_tensione_batteria+0x6c>
				real_battery_voltage=30;
			else if (battery_voltage<237)
 2b2:	8d 3e       	cpi	r24, 0xED	; 237
 2b4:	91 05       	cpc	r25, r1
 2b6:	e8 f0       	brcs	.+58     	; 0x2f2 <calcola_tensione_batteria+0x70>
				real_battery_voltage=43;
			else
			{			
				real_battery_voltage= ((340 - battery_voltage) * (43 - 30) / (340 - 237)) + 30;
 2b8:	9c 01       	movw	r18, r24
 2ba:	22 0f       	add	r18, r18
 2bc:	33 1f       	adc	r19, r19
 2be:	22 0f       	add	r18, r18
 2c0:	33 1f       	adc	r19, r19
 2c2:	22 0f       	add	r18, r18
 2c4:	33 1f       	adc	r19, r19
 2c6:	ac 01       	movw	r20, r24
 2c8:	42 1b       	sub	r20, r18
 2ca:	53 0b       	sbc	r21, r19
 2cc:	9a 01       	movw	r18, r20
 2ce:	22 0f       	add	r18, r18
 2d0:	33 1f       	adc	r19, r19
 2d2:	82 0f       	add	r24, r18
 2d4:	93 1f       	adc	r25, r19
 2d6:	8c 5b       	subi	r24, 0xBC	; 188
 2d8:	9e 4e       	sbci	r25, 0xEE	; 238
 2da:	67 e6       	ldi	r22, 0x67	; 103
 2dc:	70 e0       	ldi	r23, 0x00	; 0
 2de:	90 d2       	rcall	.+1312   	; 0x800 <__udivmodhi4>
 2e0:	8e e1       	ldi	r24, 0x1E	; 30
 2e2:	86 0f       	add	r24, r22
				if (real_battery_voltage==30)
 2e4:	8e 31       	cpi	r24, 0x1E	; 30
 2e6:	31 f4       	brne	.+12     	; 0x2f4 <calcola_tensione_batteria+0x72>
					real_battery_voltage++;
 2e8:	8f e1       	ldi	r24, 0x1F	; 31
 2ea:	86 0f       	add	r24, r22
 2ec:	08 95       	ret
			battery_voltage = battery_voltage/32;
			/*faro i conti su 3,1v, VBG pi√π bassa, cio 1V per attiny85, quindi 1*1023/3,1=330  +10 perch√® se no  mi becca anche alcuni 3.2 e 3.3..*/
			//a tre voltre avrei Vbg*1023/3 = 443,  a 4,3V avrei 310, a 5v 265
			//mappo quindi  la scala 310-443 in 4.3-3
			if (battery_voltage>340)
				real_battery_voltage=30;
 2ee:	8e e1       	ldi	r24, 0x1E	; 30
 2f0:	08 95       	ret
			else if (battery_voltage<237)
				real_battery_voltage=43;
 2f2:	8b e2       	ldi	r24, 0x2B	; 43
	}
	
	return real_battery_voltage;
	
	
 2f4:	08 95       	ret

000002f6 <__vector_3>:
#include "funzioni433.h"
#include "brugne433.h"
#include <avr/interrupt.h>

ISR(TIMER1_COMPA_vect)
{
 2f6:	1f 92       	push	r1
 2f8:	0f 92       	push	r0
 2fa:	0f b6       	in	r0, 0x3f	; 63
 2fc:	0f 92       	push	r0
 2fe:	11 24       	eor	r1, r1
 300:	2f 93       	push	r18
 302:	3f 93       	push	r19
 304:	4f 93       	push	r20
 306:	5f 93       	push	r21
 308:	6f 93       	push	r22
 30a:	7f 93       	push	r23
 30c:	8f 93       	push	r24
 30e:	9f 93       	push	r25
 310:	af 93       	push	r26
 312:	bf 93       	push	r27
 314:	ef 93       	push	r30
 316:	ff 93       	push	r31

     // rasp bit_ricevuto = digitalRead(rx_pin);

    // Do transmitter stuff first to reduce transmitter bit jitter due 
    // to variable receiver processing
    if (tx_busy && bit_inviato++ == 0) // al primo bit entro qui, poi per 7 volte di fila faccio solo il ++ dentro if (cio√® spedisco 8 bit)
 318:	80 91 d9 01 	lds	r24, 0x01D9	; 0x8001d9 <tx_busy>
 31c:	88 23       	and	r24, r24
 31e:	81 f1       	breq	.+96     	; 0x380 <__vector_3+0x8a>
 320:	80 91 db 01 	lds	r24, 0x01DB	; 0x8001db <bit_inviato>
 324:	91 e0       	ldi	r25, 0x01	; 1
 326:	98 0f       	add	r25, r24
 328:	90 93 db 01 	sts	0x01DB, r25	; 0x8001db <bit_inviato>
 32c:	81 11       	cpse	r24, r1
 32e:	28 c0       	rjmp	.+80     	; 0x380 <__vector_3+0x8a>
    {
       
      if (tx_index >= msg_length)  // messaggio finito
 330:	e0 91 dc 01 	lds	r30, 0x01DC	; 0x8001dc <tx_index>
 334:	80 91 da 01 	lds	r24, 0x01DA	; 0x8001da <msg_length>
 338:	e8 17       	cp	r30, r24
 33a:	10 f0       	brcs	.+4      	; 0x340 <__vector_3+0x4a>
	       tx_stop();
 33c:	cc de       	rcall	.-616    	; 0xd6 <tx_stop>
 33e:	20 c0       	rjmp	.+64     	; 0x380 <__vector_3+0x8a>
		
        else
        {
		
			if (buffer_dati[tx_index] & (1<<campioni_8_bit))
 340:	f0 e0       	ldi	r31, 0x00	; 0
 342:	e2 58       	subi	r30, 0x82	; 130
 344:	fe 4f       	sbci	r31, 0xFE	; 254
 346:	80 81       	ld	r24, Z
 348:	90 e0       	ldi	r25, 0x00	; 0
 34a:	00 90 d8 01 	lds	r0, 0x01D8	; 0x8001d8 <campioni_8_bit>
 34e:	02 c0       	rjmp	.+4      	; 0x354 <__vector_3+0x5e>
 350:	95 95       	asr	r25
 352:	87 95       	ror	r24
 354:	0a 94       	dec	r0
 356:	e2 f7       	brpl	.-8      	; 0x350 <__vector_3+0x5a>
 358:	80 ff       	sbrs	r24, 0
 35a:	02 c0       	rjmp	.+4      	; 0x360 <__vector_3+0x6a>
				TX_HIGH;
 35c:	c1 9a       	sbi	0x18, 1	; 24
 35e:	01 c0       	rjmp	.+2      	; 0x362 <__vector_3+0x6c>
			else
				TX_LOW;
 360:	c1 98       	cbi	0x18, 1	; 24
			campioni_8_bit++;
 362:	80 91 d8 01 	lds	r24, 0x01D8	; 0x8001d8 <campioni_8_bit>
 366:	8f 5f       	subi	r24, 0xFF	; 255
			
	        if (campioni_8_bit > 7) //all'ottavo ciclo, ho su digitalwritye l'ultimo bit del byte, ed eseguo questo if, cio√® passo al prossimo byte
 368:	88 30       	cpi	r24, 0x08	; 8
 36a:	18 f4       	brcc	.+6      	; 0x372 <__vector_3+0x7c>
		
			if (buffer_dati[tx_index] & (1<<campioni_8_bit))
				TX_HIGH;
			else
				TX_LOW;
			campioni_8_bit++;
 36c:	80 93 d8 01 	sts	0x01D8, r24	; 0x8001d8 <campioni_8_bit>
 370:	07 c0       	rjmp	.+14     	; 0x380 <__vector_3+0x8a>
			
	        if (campioni_8_bit > 7) //all'ottavo ciclo, ho su digitalwritye l'ultimo bit del byte, ed eseguo questo if, cio√® passo al prossimo byte
	        {
			
	            campioni_8_bit = 0;
 372:	10 92 d8 01 	sts	0x01D8, r1	; 0x8001d8 <campioni_8_bit>
                tx_index++;
 376:	80 91 dc 01 	lds	r24, 0x01DC	; 0x8001dc <tx_index>
 37a:	8f 5f       	subi	r24, 0xFF	; 255
 37c:	80 93 dc 01 	sts	0x01DC, r24	; 0x8001dc <tx_index>
	        }
        }
    }
    if (bit_inviato > 7)
 380:	80 91 db 01 	lds	r24, 0x01DB	; 0x8001db <bit_inviato>
 384:	88 30       	cpi	r24, 0x08	; 8
 386:	10 f0       	brcs	.+4      	; 0x38c <__vector_3+0x96>
	{

	
	bit_inviato= 0; //spedisco nuovo bit dopo 8 cicli di interrupt
 388:	10 92 db 01 	sts	0x01DB, r1	; 0x8001db <bit_inviato>
	//digitalWrite(13, TRUE);
	}

    if (rx_busy && !tx_busy) //se sono un ricevitore, filtro il bit in ingresso. ( verifico quanti degli 8 bit hanno lo stesso valore)
 38c:	80 91 d7 01 	lds	r24, 0x01D7	; 0x8001d7 <rx_busy>
 390:	88 23       	and	r24, r24
 392:	39 f0       	breq	.+14     	; 0x3a2 <__vector_3+0xac>
 394:	80 91 d9 01 	lds	r24, 0x01D9	; 0x8001d9 <tx_busy>
 398:	81 11       	cpse	r24, r1
 39a:	03 c0       	rjmp	.+6      	; 0x3a2 <__vector_3+0xac>
        filtra_messaggio(bit_ricevuto);
 39c:	80 91 d6 01 	lds	r24, 0x01D6	; 0x8001d6 <bit_ricevuto>
 3a0:	9e de       	rcall	.-708    	; 0xde <filtra_messaggio>

}
 3a2:	ff 91       	pop	r31
 3a4:	ef 91       	pop	r30
 3a6:	bf 91       	pop	r27
 3a8:	af 91       	pop	r26
 3aa:	9f 91       	pop	r25
 3ac:	8f 91       	pop	r24
 3ae:	7f 91       	pop	r23
 3b0:	6f 91       	pop	r22
 3b2:	5f 91       	pop	r21
 3b4:	4f 91       	pop	r20
 3b6:	3f 91       	pop	r19
 3b8:	2f 91       	pop	r18
 3ba:	0f 90       	pop	r0
 3bc:	0f be       	out	0x3f, r0	; 63
 3be:	0f 90       	pop	r0
 3c0:	1f 90       	pop	r1
 3c2:	18 95       	reti

000003c4 <__vector_5>:

ISR(TIMER0_OVF_vect) //1ms
{
 3c4:	1f 92       	push	r1
 3c6:	0f 92       	push	r0
 3c8:	0f b6       	in	r0, 0x3f	; 63
 3ca:	0f 92       	push	r0
 3cc:	11 24       	eor	r1, r1
 3ce:	2f 93       	push	r18
 3d0:	3f 93       	push	r19
 3d2:	4f 93       	push	r20
 3d4:	5f 93       	push	r21
 3d6:	6f 93       	push	r22
 3d8:	7f 93       	push	r23
 3da:	8f 93       	push	r24
 3dc:	9f 93       	push	r25
 3de:	af 93       	push	r26
 3e0:	bf 93       	push	r27
 3e2:	ef 93       	push	r30
 3e4:	ff 93       	push	r31

	TCNT0=248; //16 tick
 3e6:	88 ef       	ldi	r24, 0xF8	; 248
 3e8:	82 bf       	out	0x32, r24	; 50
	
    sei();
 3ea:	78 94       	sei
	ms_to_10ms ++;
 3ec:	80 91 d5 01 	lds	r24, 0x01D5	; 0x8001d5 <ms_to_10ms>
 3f0:	8f 5f       	subi	r24, 0xFF	; 255
 3f2:	80 93 d5 01 	sts	0x01D5, r24	; 0x8001d5 <ms_to_10ms>
	//timer a 1ms
	for(int i=0; i<MAX_TIMER_1MS; i++)
	{
		if (timer_1ms_array[i]>0)
 3f6:	20 91 98 01 	lds	r18, 0x0198	; 0x800198 <timer_1ms_array>
 3fa:	30 91 99 01 	lds	r19, 0x0199	; 0x800199 <timer_1ms_array+0x1>
 3fe:	23 2b       	or	r18, r19
 400:	51 f0       	breq	.+20     	; 0x416 <__LOCK_REGION_LENGTH__+0x16>
			timer_1ms_array[i]--;
 402:	20 91 98 01 	lds	r18, 0x0198	; 0x800198 <timer_1ms_array>
 406:	30 91 99 01 	lds	r19, 0x0199	; 0x800199 <timer_1ms_array+0x1>
 40a:	21 50       	subi	r18, 0x01	; 1
 40c:	31 09       	sbc	r19, r1
 40e:	30 93 99 01 	sts	0x0199, r19	; 0x800199 <timer_1ms_array+0x1>
 412:	20 93 98 01 	sts	0x0198, r18	; 0x800198 <timer_1ms_array>
	}
	
	if (ms_to_10ms==10) //timer a 10ms
 416:	8a 30       	cpi	r24, 0x0A	; 10
 418:	09 f0       	breq	.+2      	; 0x41c <__LOCK_REGION_LENGTH__+0x1c>
 41a:	55 c0       	rjmp	.+170    	; 0x4c6 <__LOCK_REGION_LENGTH__+0xc6>
	{
		ms_to_10ms =0;
 41c:	10 92 d5 01 	sts	0x01D5, r1	; 0x8001d5 <ms_to_10ms>
		for(int i=0; i<MAX_TIMER_10MS; i++)
 420:	80 e0       	ldi	r24, 0x00	; 0
 422:	90 e0       	ldi	r25, 0x00	; 0
		{
			if (timer_10ms_array[i]>0)
 424:	fc 01       	movw	r30, r24
 426:	ee 0f       	add	r30, r30
 428:	ff 1f       	adc	r31, r31
 42a:	e4 57       	subi	r30, 0x74	; 116
 42c:	fe 4f       	sbci	r31, 0xFE	; 254
 42e:	20 81       	ld	r18, Z
 430:	31 81       	ldd	r19, Z+1	; 0x01
 432:	23 2b       	or	r18, r19
 434:	59 f0       	breq	.+22     	; 0x44c <__LOCK_REGION_LENGTH__+0x4c>
				timer_10ms_array[i]--;
 436:	fc 01       	movw	r30, r24
 438:	ee 0f       	add	r30, r30
 43a:	ff 1f       	adc	r31, r31
 43c:	e4 57       	subi	r30, 0x74	; 116
 43e:	fe 4f       	sbci	r31, 0xFE	; 254
 440:	20 81       	ld	r18, Z
 442:	31 81       	ldd	r19, Z+1	; 0x01
 444:	21 50       	subi	r18, 0x01	; 1
 446:	31 09       	sbc	r19, r1
 448:	31 83       	std	Z+1, r19	; 0x01
 44a:	20 83       	st	Z, r18
	}
	
	if (ms_to_10ms==10) //timer a 10ms
	{
		ms_to_10ms =0;
		for(int i=0; i<MAX_TIMER_10MS; i++)
 44c:	01 96       	adiw	r24, 0x01	; 1
 44e:	83 30       	cpi	r24, 0x03	; 3
 450:	91 05       	cpc	r25, r1
 452:	41 f7       	brne	.-48     	; 0x424 <__LOCK_REGION_LENGTH__+0x24>
			if (timer_10ms_array[i]>0)
				timer_10ms_array[i]--;
		}
	
		//parte iniziale gestione bottone
		if(!is_timer10ms_expired(TIMER_1S_STARTUP))
 454:	81 e0       	ldi	r24, 0x01	; 1
 456:	c7 de       	rcall	.-626    	; 0x1e6 <is_timer10ms_expired>
 458:	81 11       	cpse	r24, r1
 45a:	35 c0       	rjmp	.+106    	; 0x4c6 <__LOCK_REGION_LENGTH__+0xc6>
		{
			if (IsBtnPressed()) 
 45c:	ed de       	rcall	.-550    	; 0x238 <IsBtnPressed>
 45e:	88 23       	and	r24, r24
 460:	e1 f0       	breq	.+56     	; 0x49a <__LOCK_REGION_LENGTH__+0x9a>
			{
				set_timer10ms(TIMER_1S_STARTUP, TIME_10ms_10s);
 462:	68 ee       	ldi	r22, 0xE8	; 232
 464:	73 e0       	ldi	r23, 0x03	; 3
 466:	81 e0       	ldi	r24, 0x01	; 1
 468:	cb de       	rcall	.-618    	; 0x200 <set_timer10ms>
				if (cont_btn_pressed<250)
 46a:	80 91 92 01 	lds	r24, 0x0192	; 0x800192 <cont_btn_pressed>
 46e:	8a 3f       	cpi	r24, 0xFA	; 250
 470:	18 f4       	brcc	.+6      	; 0x478 <__LOCK_REGION_LENGTH__+0x78>
					cont_btn_pressed++;
 472:	8f 5f       	subi	r24, 0xFF	; 255
 474:	80 93 92 01 	sts	0x0192, r24	; 0x800192 <cont_btn_pressed>
				if (cont_btn_pressed>=3) //30ms
 478:	80 91 92 01 	lds	r24, 0x0192	; 0x800192 <cont_btn_pressed>
 47c:	83 30       	cpi	r24, 0x03	; 3
 47e:	38 f0       	brcs	.+14     	; 0x48e <__LOCK_REGION_LENGTH__+0x8e>
				{
					cont_btn_released=0;
 480:	10 92 7c 01 	sts	0x017C, r1	; 0x80017c <cont_btn_released>
					btn_released=FALSE;
 484:	10 92 85 01 	sts	0x0185, r1	; 0x800185 <btn_released>
					btn_press = TRUE;
 488:	91 e0       	ldi	r25, 0x01	; 1
 48a:	90 93 95 01 	sts	0x0195, r25	; 0x800195 <btn_press>
				}
				if (cont_btn_pressed>=200) //2sec
 48e:	88 3c       	cpi	r24, 0xC8	; 200
 490:	d0 f0       	brcs	.+52     	; 0x4c6 <__LOCK_REGION_LENGTH__+0xc6>
				{
					btn_press_2s = TRUE;
 492:	81 e0       	ldi	r24, 0x01	; 1
 494:	80 93 87 01 	sts	0x0187, r24	; 0x800187 <btn_press_2s>
 498:	16 c0       	rjmp	.+44     	; 0x4c6 <__LOCK_REGION_LENGTH__+0xc6>
				}
			
			}
			else
			{
			   if (cont_btn_released<250)
 49a:	80 91 7c 01 	lds	r24, 0x017C	; 0x80017c <cont_btn_released>
 49e:	8a 3f       	cpi	r24, 0xFA	; 250
 4a0:	18 f4       	brcc	.+6      	; 0x4a8 <__LOCK_REGION_LENGTH__+0xa8>
					cont_btn_released++;
 4a2:	8f 5f       	subi	r24, 0xFF	; 255
 4a4:	80 93 7c 01 	sts	0x017C, r24	; 0x80017c <cont_btn_released>
				if (cont_btn_released >=3) //30ms
 4a8:	80 91 7c 01 	lds	r24, 0x017C	; 0x80017c <cont_btn_released>
 4ac:	83 30       	cpi	r24, 0x03	; 3
 4ae:	58 f0       	brcs	.+22     	; 0x4c6 <__LOCK_REGION_LENGTH__+0xc6>
				{
					btn_press=FALSE;
 4b0:	10 92 95 01 	sts	0x0195, r1	; 0x800195 <btn_press>
					 btn_press_2s=FALSE;
 4b4:	10 92 87 01 	sts	0x0187, r1	; 0x800187 <btn_press_2s>
					 btn_press_5s=FALSE;
 4b8:	10 92 7d 01 	sts	0x017D, r1	; 0x80017d <btn_press_5s>
					 cont_btn_pressed=0;
 4bc:	10 92 92 01 	sts	0x0192, r1	; 0x800192 <cont_btn_pressed>
					 btn_released=TRUE;
 4c0:	81 e0       	ldi	r24, 0x01	; 1
 4c2:	80 93 85 01 	sts	0x0185, r24	; 0x800185 <btn_released>
		}
		
		
	}
	*/
}
 4c6:	ff 91       	pop	r31
 4c8:	ef 91       	pop	r30
 4ca:	bf 91       	pop	r27
 4cc:	af 91       	pop	r26
 4ce:	9f 91       	pop	r25
 4d0:	8f 91       	pop	r24
 4d2:	7f 91       	pop	r23
 4d4:	6f 91       	pop	r22
 4d6:	5f 91       	pop	r21
 4d8:	4f 91       	pop	r20
 4da:	3f 91       	pop	r19
 4dc:	2f 91       	pop	r18
 4de:	0f 90       	pop	r0
 4e0:	0f be       	out	0x3f, r0	; 63
 4e2:	0f 90       	pop	r0
 4e4:	1f 90       	pop	r1
 4e6:	18 95       	reti

000004e8 <__vector_8>:
ISR(ADC_vect)
{
 4e8:	1f 92       	push	r1
 4ea:	0f 92       	push	r0
 4ec:	0f b6       	in	r0, 0x3f	; 63
 4ee:	0f 92       	push	r0
 4f0:	11 24       	eor	r1, r1
 4f2:	2f 93       	push	r18
 4f4:	3f 93       	push	r19
 4f6:	4f 93       	push	r20
 4f8:	5f 93       	push	r21
 4fa:	8f 93       	push	r24
 4fc:	9f 93       	push	r25
	WORD loc_conversion_value=0;
	n_conversioni_adc++;
 4fe:	80 91 d2 01 	lds	r24, 0x01D2	; 0x8001d2 <n_conversioni_adc>
 502:	8f 5f       	subi	r24, 0xFF	; 255
 504:	80 93 d2 01 	sts	0x01D2, r24	; 0x8001d2 <n_conversioni_adc>
	
	if (n_conversioni_adc>32) //le prime 32 le scarto, poi ne accumulo 32 e divido per 32)
 508:	81 32       	cpi	r24, 0x21	; 33
 50a:	b0 f0       	brcs	.+44     	; 0x538 <__vector_8+0x50>
	{
		
		loc_conversion_value = ADCL;
 50c:	24 b1       	in	r18, 0x04	; 4
		loc_conversion_value |= (ADCH<<8);
 50e:	95 b1       	in	r25, 0x05	; 5
		battery_voltage += loc_conversion_value;
 510:	30 e0       	ldi	r19, 0x00	; 0
 512:	39 2b       	or	r19, r25
 514:	40 91 66 01 	lds	r20, 0x0166	; 0x800166 <battery_voltage>
 518:	50 91 67 01 	lds	r21, 0x0167	; 0x800167 <battery_voltage+0x1>
 51c:	24 0f       	add	r18, r20
 51e:	35 1f       	adc	r19, r21
 520:	30 93 67 01 	sts	0x0167, r19	; 0x800167 <battery_voltage+0x1>
 524:	20 93 66 01 	sts	0x0166, r18	; 0x800166 <battery_voltage>
		if (n_conversioni_adc>=64)
 528:	80 34       	cpi	r24, 0x40	; 64
 52a:	50 f0       	brcs	.+20     	; 0x540 <__vector_8+0x58>
		{
			conversione_terminata=TRUE;
 52c:	81 e0       	ldi	r24, 0x01	; 1
 52e:	80 93 9b 01 	sts	0x019B, r24	; 0x80019b <conversione_terminata>
			ADCSRA &= ~(1<<ADIE); //disabilito interrupt + disabilito conversioni+spengo adc
 532:	33 98       	cbi	0x06, 3	; 6
			ADCSRA &= ~(1<<ADSC);
 534:	36 98       	cbi	0x06, 6	; 6
			ADCSRA &= ~(1<< ADEN);  
 536:	37 98       	cbi	0x06, 7	; 6
		}
	}
	if (n_conversioni_adc<64)
 538:	80 91 d2 01 	lds	r24, 0x01D2	; 0x8001d2 <n_conversioni_adc>
 53c:	80 34       	cpi	r24, 0x40	; 64
 53e:	08 f4       	brcc	.+2      	; 0x542 <__vector_8+0x5a>
		ADCSRA |= 1<<ADSC;
 540:	36 9a       	sbi	0x06, 6	; 6
	
	
}
 542:	9f 91       	pop	r25
 544:	8f 91       	pop	r24
 546:	5f 91       	pop	r21
 548:	4f 91       	pop	r20
 54a:	3f 91       	pop	r19
 54c:	2f 91       	pop	r18
 54e:	0f 90       	pop	r0
 550:	0f be       	out	0x3f, r0	; 63
 552:	0f 90       	pop	r0
 554:	1f 90       	pop	r1
 556:	18 95       	reti

00000558 <init_button>:
	
	
}

void init_button(void)
{
 558:	9f 92       	push	r9
 55a:	af 92       	push	r10
 55c:	bf 92       	push	r11
 55e:	cf 92       	push	r12
 560:	df 92       	push	r13
 562:	ef 92       	push	r14
 564:	ff 92       	push	r15
 566:	0f 93       	push	r16
 568:	1f 93       	push	r17
 56a:	cf 93       	push	r28
 56c:	df 93       	push	r29
	static BYTE passo_bottone=STARTUP_ENTRY;
	BYTE indirizzo=0;
	BYTE indirizzo_copia = 0;
	BYTE led_on=FALSE;
	BYTE btn_state = PREMUTO;
	cont_btn_pressed=0;
 56e:	10 92 92 01 	sts	0x0192, r1	; 0x800192 <cont_btn_pressed>
	cont_btn_released=0;
 572:	10 92 7c 01 	sts	0x017C, r1	; 0x80017c <cont_btn_released>
	btn_press= FALSE;
 576:	10 92 95 01 	sts	0x0195, r1	; 0x800195 <btn_press>
	btn_press_2s=FALSE;
 57a:	10 92 87 01 	sts	0x0187, r1	; 0x800187 <btn_press_2s>
	btn_released=FALSE;
 57e:	10 92 85 01 	sts	0x0185, r1	; 0x800185 <btn_released>
	BYTE blink_led_count=20;
	LED_HIGH;
 582:	c3 9a       	sbi	0x18, 3	; 24
	set_timer10ms(TIMER_1S_STARTUP, TIME_10ms_10s); //timer ciclo main
 584:	68 ee       	ldi	r22, 0xE8	; 232
 586:	73 e0       	ldi	r23, 0x03	; 3
 588:	81 e0       	ldi	r24, 0x01	; 1
 58a:	3a de       	rcall	.-908    	; 0x200 <set_timer10ms>
	cont_btn_pressed=0;
	cont_btn_released=0;
	btn_press= FALSE;
	btn_press_2s=FALSE;
	btn_released=FALSE;
	BYTE blink_led_count=20;
 58c:	d4 e1       	ldi	r29, 0x14	; 20
{
	static BYTE passo_bottone=STARTUP_ENTRY;
	BYTE indirizzo=0;
	BYTE indirizzo_copia = 0;
	BYTE led_on=FALSE;
	BYTE btn_state = PREMUTO;
 58e:	ff 24       	eor	r15, r15
 590:	f3 94       	inc	r15
void init_button(void)
{
	static BYTE passo_bottone=STARTUP_ENTRY;
	BYTE indirizzo=0;
	BYTE indirizzo_copia = 0;
	BYTE led_on=FALSE;
 592:	10 e0       	ldi	r17, 0x00	; 0

void init_button(void)
{
	static BYTE passo_bottone=STARTUP_ENTRY;
	BYTE indirizzo=0;
	BYTE indirizzo_copia = 0;
 594:	a1 2c       	mov	r10, r1
}

void init_button(void)
{
	static BYTE passo_bottone=STARTUP_ENTRY;
	BYTE indirizzo=0;
 596:	00 e0       	ldi	r16, 0x00	; 0
	BYTE blink_led_count=20;
	LED_HIGH;
	set_timer10ms(TIMER_1S_STARTUP, TIME_10ms_10s); //timer ciclo main
	while(1)
	{
		if (is_timer10ms_expired(TIMER_1S_STARTUP))
 598:	c1 e0       	ldi	r28, 0x01	; 1
						if (is_timer10ms_expired(TIMER_1S_LED))
						{
							set_timer10ms(TIMER_1S_STARTUP, TIME_10ms_10s); //timer ciclo main
							if (led_on)
							{
								led_on=FALSE;
 59a:	e1 2c       	mov	r14, r1
 59c:	be 2c       	mov	r11, r14
						}
							
						

					}
					passo_bottone = VALIDA_INDIRIZZO;
 59e:	0f 2e       	mov	r0, r31
 5a0:	f3 e0       	ldi	r31, 0x03	; 3
 5a2:	df 2e       	mov	r13, r31
 5a4:	f0 2d       	mov	r31, r0
				{
					if (btn_press_2s)
					{
						if (indirizzo_copia<16 && indirizzo_copia>0)
							eeprom_write_byte((BYTE*)0x01, indirizzo_copia);
						passo_bottone = BLINK_LED_FAST;
 5a6:	68 94       	set
 5a8:	99 24       	eor	r9, r9
 5aa:	92 f8       	bld	r9, 2
								LED_LOW;
							}

							else
							{
								led_on=TRUE;
 5ac:	cc 2e       	mov	r12, r28
	BYTE blink_led_count=20;
	LED_HIGH;
	set_timer10ms(TIMER_1S_STARTUP, TIME_10ms_10s); //timer ciclo main
	while(1)
	{
		if (is_timer10ms_expired(TIMER_1S_STARTUP))
 5ae:	8c 2f       	mov	r24, r28
 5b0:	1a de       	rcall	.-972    	; 0x1e6 <is_timer10ms_expired>
 5b2:	81 11       	cpse	r24, r1
 5b4:	7c c0       	rjmp	.+248    	; 0x6ae <init_button+0x156>
			break;
		else
		{
			switch (passo_bottone)
 5b6:	80 91 60 01 	lds	r24, 0x0160	; 0x800160 <__data_end>
 5ba:	82 30       	cpi	r24, 0x02	; 2
 5bc:	09 f4       	brne	.+2      	; 0x5c0 <init_button+0x68>
 5be:	4a c0       	rjmp	.+148    	; 0x654 <init_button+0xfc>
 5c0:	28 f4       	brcc	.+10     	; 0x5cc <init_button+0x74>
 5c2:	88 23       	and	r24, r24
 5c4:	51 f0       	breq	.+20     	; 0x5da <init_button+0x82>
 5c6:	81 30       	cpi	r24, 0x01	; 1
 5c8:	89 f0       	breq	.+34     	; 0x5ec <init_button+0x94>
 5ca:	f1 cf       	rjmp	.-30     	; 0x5ae <init_button+0x56>
 5cc:	83 30       	cpi	r24, 0x03	; 3
 5ce:	09 f4       	brne	.+2      	; 0x5d2 <init_button+0x7a>
 5d0:	46 c0       	rjmp	.+140    	; 0x65e <init_button+0x106>
 5d2:	84 30       	cpi	r24, 0x04	; 4
 5d4:	09 f4       	brne	.+2      	; 0x5d8 <init_button+0x80>
 5d6:	67 c0       	rjmp	.+206    	; 0x6a6 <init_button+0x14e>
 5d8:	ea cf       	rjmp	.-44     	; 0x5ae <init_button+0x56>
			{
				case STARTUP_ENTRY:
				{
					if (btn_released)
 5da:	80 91 85 01 	lds	r24, 0x0185	; 0x800185 <btn_released>
 5de:	88 23       	and	r24, r24
 5e0:	31 f3       	breq	.-52     	; 0x5ae <init_button+0x56>
					{
						btn_state = RILASCIATO;
						passo_bottone = INSERIMENTO_INDIRIZZO;
 5e2:	c0 92 60 01 	sts	0x0160, r12	; 0x800160 <__data_end>
						LED_LOW;
 5e6:	c3 98       	cbi	0x18, 3	; 24
			{
				case STARTUP_ENTRY:
				{
					if (btn_released)
					{
						btn_state = RILASCIATO;
 5e8:	fe 2c       	mov	r15, r14
 5ea:	e1 cf       	rjmp	.-62     	; 0x5ae <init_button+0x56>
					}
				}
				break;
				case INSERIMENTO_INDIRIZZO:
				{
					if (btn_state == PREMUTO) //se Ë premuto, me poi lo rilascio, incremento indirizzo, tanto btn_press e btn_press_2s vengono resettati nel timer int
 5ec:	81 e0       	ldi	r24, 0x01	; 1
 5ee:	f8 12       	cpse	r15, r24
 5f0:	06 c0       	rjmp	.+12     	; 0x5fe <init_button+0xa6>
					{
						if (btn_released)
 5f2:	80 91 85 01 	lds	r24, 0x0185	; 0x800185 <btn_released>
 5f6:	88 23       	and	r24, r24
 5f8:	11 f0       	breq	.+4      	; 0x5fe <init_button+0xa6>
						{
							indirizzo++;
 5fa:	0f 5f       	subi	r16, 0xFF	; 255
							btn_state = RILASCIATO;
 5fc:	fe 2c       	mov	r15, r14
						}
					}
					if (btn_press_2s)
 5fe:	80 91 87 01 	lds	r24, 0x0187	; 0x800187 <btn_press_2s>
 602:	88 23       	and	r24, r24
 604:	69 f0       	breq	.+26     	; 0x620 <init_button+0xc8>
					{
						
						LED_HIGH;
 606:	c3 9a       	sbi	0x18, 3	; 24
						if (!IsBtnPressed())
 608:	17 de       	rcall	.-978    	; 0x238 <IsBtnPressed>
 60a:	81 11       	cpse	r24, r1
 60c:	d0 cf       	rjmp	.-96     	; 0x5ae <init_button+0x56>
						{
							indirizzo_copia=indirizzo;
							passo_bottone = VISUALIZZA_INDIRIZZO;
 60e:	82 e0       	ldi	r24, 0x02	; 2
 610:	80 93 60 01 	sts	0x0160, r24	; 0x800160 <__data_end>
							LED_LOW;
 614:	c3 98       	cbi	0x18, 3	; 24
							set_timer10ms(TIMER_1S_LED, TIME_10ms_1s*3); //timer ciclo main
 616:	6c e2       	ldi	r22, 0x2C	; 44
 618:	71 e0       	ldi	r23, 0x01	; 1
 61a:	f2 dd       	rcall	.-1052   	; 0x200 <set_timer10ms>
					{
						
						LED_HIGH;
						if (!IsBtnPressed())
						{
							indirizzo_copia=indirizzo;
 61c:	a0 2e       	mov	r10, r16
 61e:	c7 cf       	rjmp	.-114    	; 0x5ae <init_button+0x56>
							passo_bottone = VISUALIZZA_INDIRIZZO;
							LED_LOW;
							set_timer10ms(TIMER_1S_LED, TIME_10ms_1s*3); //timer ciclo main
						}
					}
					else if (btn_press)
 620:	80 91 95 01 	lds	r24, 0x0195	; 0x800195 <btn_press>
 624:	88 23       	and	r24, r24
 626:	19 f2       	breq	.-122    	; 0x5ae <init_button+0x56>
					{
						btn_state = PREMUTO;
 628:	fc 2e       	mov	r15, r28
 62a:	c1 cf       	rjmp	.-126    	; 0x5ae <init_button+0x56>
				break;
				case VISUALIZZA_INDIRIZZO:
				{
					while (indirizzo)
					{
						if (is_timer10ms_expired(TIMER_1S_LED))
 62c:	82 e0       	ldi	r24, 0x02	; 2
 62e:	db dd       	rcall	.-1098   	; 0x1e6 <is_timer10ms_expired>
 630:	88 23       	and	r24, r24
 632:	e1 f3       	breq	.-8      	; 0x62c <init_button+0xd4>
						{
							set_timer10ms(TIMER_1S_STARTUP, TIME_10ms_10s); //timer ciclo main
 634:	68 ee       	ldi	r22, 0xE8	; 232
 636:	73 e0       	ldi	r23, 0x03	; 3
 638:	8c 2f       	mov	r24, r28
 63a:	e2 dd       	rcall	.-1084   	; 0x200 <set_timer10ms>
							if (led_on)
 63c:	11 23       	and	r17, r17
 63e:	19 f0       	breq	.+6      	; 0x646 <init_button+0xee>
							{
								led_on=FALSE;
								LED_LOW;
 640:	c3 98       	cbi	0x18, 3	; 24
						if (is_timer10ms_expired(TIMER_1S_LED))
						{
							set_timer10ms(TIMER_1S_STARTUP, TIME_10ms_10s); //timer ciclo main
							if (led_on)
							{
								led_on=FALSE;
 642:	1b 2d       	mov	r17, r11
 644:	03 c0       	rjmp	.+6      	; 0x64c <init_button+0xf4>
							}

							else
							{
								led_on=TRUE;
								LED_HIGH;
 646:	c3 9a       	sbi	0x18, 3	; 24
								indirizzo --;
 648:	01 50       	subi	r16, 0x01	; 1
								LED_LOW;
							}

							else
							{
								led_on=TRUE;
 64a:	1c 2f       	mov	r17, r28
								LED_HIGH;
								indirizzo --;
							}
							
							set_timer10ms(TIMER_1S_LED, TIME_10ms_1s); //timer ciclo main
 64c:	64 e6       	ldi	r22, 0x64	; 100
 64e:	70 e0       	ldi	r23, 0x00	; 0
 650:	82 e0       	ldi	r24, 0x02	; 2
 652:	d6 dd       	rcall	.-1108   	; 0x200 <set_timer10ms>
					}
				}
				break;
				case VISUALIZZA_INDIRIZZO:
				{
					while (indirizzo)
 654:	01 11       	cpse	r16, r1
 656:	ea cf       	rjmp	.-44     	; 0x62c <init_button+0xd4>
						}
							
						

					}
					passo_bottone = VALIDA_INDIRIZZO;
 658:	d0 92 60 01 	sts	0x0160, r13	; 0x800160 <__data_end>
					
				}
				break;
 65c:	a8 cf       	rjmp	.-176    	; 0x5ae <init_button+0x56>

				case VALIDA_INDIRIZZO:
				{
					if (btn_press_2s)
 65e:	80 91 87 01 	lds	r24, 0x0187	; 0x800187 <btn_press_2s>
 662:	88 23       	and	r24, r24
 664:	09 f4       	brne	.+2      	; 0x668 <init_button+0x110>
 666:	a3 cf       	rjmp	.-186    	; 0x5ae <init_button+0x56>
					{
						if (indirizzo_copia<16 && indirizzo_copia>0)
 668:	8f ef       	ldi	r24, 0xFF	; 255
 66a:	8a 0d       	add	r24, r10
 66c:	8f 30       	cpi	r24, 0x0F	; 15
 66e:	20 f4       	brcc	.+8      	; 0x678 <init_button+0x120>
							eeprom_write_byte((BYTE*)0x01, indirizzo_copia);
 670:	6a 2d       	mov	r22, r10
 672:	81 e0       	ldi	r24, 0x01	; 1
 674:	90 e0       	ldi	r25, 0x00	; 0
 676:	02 d1       	rcall	.+516    	; 0x87c <eeprom_write_byte>
						passo_bottone = BLINK_LED_FAST;
 678:	90 92 60 01 	sts	0x0160, r9	; 0x800160 <__data_end>
						set_timer10ms(TIMER_1S_LED, TIME_10ms_01s); //timer ciclo main
 67c:	6a e0       	ldi	r22, 0x0A	; 10
 67e:	70 e0       	ldi	r23, 0x00	; 0
 680:	82 e0       	ldi	r24, 0x02	; 2
 682:	be dd       	rcall	.-1156   	; 0x200 <set_timer10ms>
 684:	94 cf       	rjmp	.-216    	; 0x5ae <init_button+0x56>
				case BLINK_LED_FAST:
				{
					while (blink_led_count)
					{
						
						if (is_timer10ms_expired(TIMER_1S_LED))
 686:	82 e0       	ldi	r24, 0x02	; 2
 688:	ae dd       	rcall	.-1188   	; 0x1e6 <is_timer10ms_expired>
 68a:	88 23       	and	r24, r24
 68c:	e1 f3       	breq	.-8      	; 0x686 <init_button+0x12e>
						{
							blink_led_count--;
 68e:	d1 50       	subi	r29, 0x01	; 1
							
							if (led_on)
 690:	11 23       	and	r17, r17
 692:	19 f0       	breq	.+6      	; 0x69a <init_button+0x142>
							{
								led_on=FALSE;
								LED_LOW;
 694:	c3 98       	cbi	0x18, 3	; 24
						{
							blink_led_count--;
							
							if (led_on)
							{
								led_on=FALSE;
 696:	1b 2d       	mov	r17, r11
 698:	02 c0       	rjmp	.+4      	; 0x69e <init_button+0x146>
							}

							else
							{
								led_on=TRUE;
								LED_HIGH;
 69a:	c3 9a       	sbi	0x18, 3	; 24
								LED_LOW;
							}

							else
							{
								led_on=TRUE;
 69c:	1c 2d       	mov	r17, r12
								LED_HIGH;
								
							}
							
							set_timer10ms(TIMER_1S_LED, TIME_10ms_01s); //timer ciclo main
 69e:	6a e0       	ldi	r22, 0x0A	; 10
 6a0:	70 e0       	ldi	r23, 0x00	; 0
 6a2:	82 e0       	ldi	r24, 0x02	; 2
 6a4:	ad dd       	rcall	.-1190   	; 0x200 <set_timer10ms>

				}
				break;
				case BLINK_LED_FAST:
				{
					while (blink_led_count)
 6a6:	d1 11       	cpse	r29, r1
 6a8:	ee cf       	rjmp	.-36     	; 0x686 <init_button+0x12e>
							set_timer10ms(TIMER_1S_LED, TIME_10ms_01s); //timer ciclo main
						}
						
						
					}
					LED_LOW;
 6aa:	c3 98       	cbi	0x18, 3	; 24
					break;
 6ac:	80 cf       	rjmp	.-256    	; 0x5ae <init_button+0x56>
			}

		}

	}
	LED_LOW;
 6ae:	c3 98       	cbi	0x18, 3	; 24
}
 6b0:	df 91       	pop	r29
 6b2:	cf 91       	pop	r28
 6b4:	1f 91       	pop	r17
 6b6:	0f 91       	pop	r16
 6b8:	ff 90       	pop	r15
 6ba:	ef 90       	pop	r14
 6bc:	df 90       	pop	r13
 6be:	cf 90       	pop	r12
 6c0:	bf 90       	pop	r11
 6c2:	af 90       	pop	r10
 6c4:	9f 90       	pop	r9
 6c6:	08 95       	ret

000006c8 <main_loop>:
char *msg_ON = "LED_ON";
char *msg_OFF = "LED_OFF";
int main_loop(void) 
{
	buffer_dati[0]=0x60;
 6c8:	ce e7       	ldi	r28, 0x7E	; 126
 6ca:	d1 e0       	ldi	r29, 0x01	; 1
 6cc:	80 e6       	ldi	r24, 0x60	; 96
 6ce:	88 83       	st	Y, r24
	buffer_dati[1]=0xA1;
 6d0:	81 ea       	ldi	r24, 0xA1	; 161
 6d2:	89 83       	std	Y+1, r24	; 0x01
	buffer_dati[2]=address_n;
 6d4:	80 91 86 01 	lds	r24, 0x0186	; 0x800186 <address_n>
 6d8:	8a 83       	std	Y+2, r24	; 0x02
	buffer_dati[3]=battery_voltage_to_transmit;
 6da:	80 91 65 01 	lds	r24, 0x0165	; 0x800165 <battery_voltage_to_transmit>
 6de:	8b 83       	std	Y+3, r24	; 0x03
	// address_n| ((battery_voltage_to_transmit-30)<<4); //nibble basso indirizzo, nibble alto =0-13 tensione batteria , 0=30, 13=43
	//buffer_dati[0]=address_n;    //carico l'header nel pacchetto di trasmissione, rimane uguale ad ogni trasmissione
	//buffer_dati[1]=battery_voltage_to_transmit;
	//buffer_dati[2]=address_n;
	//buffer_dati[3]=battery_voltage_to_transmit;
	buffer_dati[4]=crc_calc_bytearray(&buffer_dati[0], HEADER_LENGTH+ MESSAGE_LENGTH);
 6e0:	64 e0       	ldi	r22, 0x04	; 4
 6e2:	ce 01       	movw	r24, r28
 6e4:	96 dd       	rcall	.-1236   	; 0x212 <crc_calc_bytearray>
 6e6:	8c 83       	std	Y+4, r24	; 0x04
	buffer_dati[5]=0x7E;
 6e8:	8e e7       	ldi	r24, 0x7E	; 126
 6ea:	8d 83       	std	Y+5, r24	; 0x05
	buffer_dati[6]=0x0F;
 6ec:	8f e0       	ldi	r24, 0x0F	; 15
 6ee:	8e 83       	std	Y+6, r24	; 0x06
  
    pacchetti_inviati=0;
 6f0:	10 92 63 01 	sts	0x0163, r1	; 0x800163 <pacchetti_inviati+0x1>
 6f4:	10 92 62 01 	sts	0x0162, r1	; 0x800162 <pacchetti_inviati>

	going_to_sleep = FALSE;
 6f8:	10 92 9c 01 	sts	0x019C, r1	; 0x80019c <going_to_sleep>
	cont_apertura_chiusura=0;
 6fc:	10 92 97 01 	sts	0x0197, r1	; 0x800197 <cont_apertura_chiusura>
	aperto_chiuso= CHIUSO;
 700:	10 92 8a 01 	sts	0x018A, r1	; 0x80018a <aperto_chiuso>
	//set_timer1ms(TIMER_1MS_CICLO, TIME_2MS);
	stop_timer0_ovf();
 704:	ca dc       	rcall	.-1644   	; 0x9a <stop_timer0_ovf>
	tx_stop();
 706:	e7 dc       	rcall	.-1586   	; 0xd6 <tx_stop>
    while (1)
    {
		#ifdef TRASMETTITORE
		{

			VCC_HIGH;
 708:	c2 9a       	sbi	0x18, 2	; 24
			if(pacchetti_inviati>=150)
 70a:	80 91 62 01 	lds	r24, 0x0162	; 0x800162 <pacchetti_inviati>
 70e:	90 91 63 01 	lds	r25, 0x0163	; 0x800163 <pacchetti_inviati+0x1>
 712:	86 39       	cpi	r24, 0x96	; 150
 714:	91 05       	cpc	r25, r1
 716:	38 f0       	brcs	.+14     	; 0x726 <main_loop+0x5e>
			{
				
				//OSCCAL++;
				pacchetti_inviati=0;
 718:	10 92 63 01 	sts	0x0163, r1	; 0x800163 <pacchetti_inviati+0x1>
 71c:	10 92 62 01 	sts	0x0162, r1	; 0x800162 <pacchetti_inviati>
				going_to_sleep=FALSE;
 720:	10 92 9c 01 	sts	0x019C, r1	; 0x80019c <going_to_sleep>
				go_to_sleep();
 724:	c3 dc       	rcall	.-1658   	; 0xac <go_to_sleep>
			}
				
			//if (is_timer1ms_expired(TIMER_1MS_CICLO))
			//{
				
				if (!is_transmitting())
 726:	d4 dc       	rcall	.-1624   	; 0xd0 <is_transmitting>
 728:	81 11       	cpse	r24, r1
 72a:	ee cf       	rjmp	.-36     	; 0x708 <main_loop+0x40>
				{
					
					pacchetti_inviati ++;
 72c:	80 91 62 01 	lds	r24, 0x0162	; 0x800162 <pacchetti_inviati>
 730:	90 91 63 01 	lds	r25, 0x0163	; 0x800163 <pacchetti_inviati+0x1>
 734:	01 96       	adiw	r24, 0x01	; 1
 736:	90 93 63 01 	sts	0x0163, r25	; 0x800163 <pacchetti_inviati+0x1>
 73a:	80 93 62 01 	sts	0x0162, r24	; 0x800162 <pacchetti_inviati>
					send_packet(&buffer_dati[0], HEADER_LENGTH+ MESSAGE_LENGTH+ CRC_LENGTH+ STOP_LENGTH);
 73e:	67 e0       	ldi	r22, 0x07	; 7
 740:	8e e7       	ldi	r24, 0x7E	; 126
 742:	91 e0       	ldi	r25, 0x01	; 1
 744:	b9 dc       	rcall	.-1678   	; 0xb8 <send_packet>
 746:	e0 cf       	rjmp	.-64     	; 0x708 <main_loop+0x40>

00000748 <main>:
#define TRASMETTITORE
//#define RICEVITORE

int main(void) 
{
	cli();
 748:	f8 94       	cli
    init_timer1_compare(); //inizializzo timer 1 compare
 74a:	85 dc       	rcall	.-1782   	; 0x56 <init_timer1_compare>
    baud_setup(2000); //inizializzo ocr1a al valore corretto 
 74c:	80 ed       	ldi	r24, 0xD0	; 208
 74e:	97 e0       	ldi	r25, 0x07	; 7
 750:	89 dc       	rcall	.-1774   	; 0x64 <baud_setup>
	port_setup(); //DDR, PU, PORT
 752:	a7 dc       	rcall	.-1714   	; 0xa2 <port_setup>
	    init_timer0_ovf(); //inziializzo timer0 per ciclo main
 754:	95 dc       	rcall	.-1750   	; 0x80 <init_timer0_ovf>
	    //

	    //da raggruppare
	    ACSR |= 1<<ACD; //disable comparator
 756:	47 9a       	sbi	0x08, 7	; 8
	    ADCSRA = 0;   //disable the ADC
 758:	16 b8       	out	0x06, r1	; 6
	    WDTCR |= (1<<WDE) | (1<<WDCE); //abilito wtd altrimewnti non posso disabilitarlo
 75a:	81 b5       	in	r24, 0x21	; 33
 75c:	88 61       	ori	r24, 0x18	; 24
 75e:	81 bd       	out	0x21, r24	; 33
	    WDTCR &= ~(1<<WDE);  //spengo WTD
 760:	81 b5       	in	r24, 0x21	; 33
 762:	87 7f       	andi	r24, 0xF7	; 247
 764:	81 bd       	out	0x21, r24	; 33
	    MCUCR |= 1<<SM1; //power down setup
 766:	85 b7       	in	r24, 0x35	; 53
 768:	80 61       	ori	r24, 0x10	; 16
 76a:	85 bf       	out	0x35, r24	; 53
	    MCUCR &= ~(1<<SM0);
 76c:	85 b7       	in	r24, 0x35	; 53
 76e:	87 7f       	andi	r24, 0xF7	; 247
 770:	85 bf       	out	0x35, r24	; 53
	    MCUCR |= 1<<SE; //sleep enable bit
 772:	85 b7       	in	r24, 0x35	; 53
 774:	80 62       	ori	r24, 0x20	; 32
 776:	85 bf       	out	0x35, r24	; 53
	    
	    sei(); //abilito interrupt globale
 778:	78 94       	sei
	    //eeprom_write_byte((BYTE*)0x02, 85);
	    OSCCAL= eeprom_read_byte((BYTE*)0x02);
 77a:	82 e0       	ldi	r24, 0x02	; 2
 77c:	90 e0       	ldi	r25, 0x00	; 0
 77e:	76 d0       	rcall	.+236    	; 0x86c <eeprom_read_byte>
 780:	81 bf       	out	0x31, r24	; 49
	    //OSCCAL=82;
	    start_timer1_compareA(); //start timer interrupt
 782:	6c dc       	rcall	.-1832   	; 0x5c <start_timer1_compareA>
	    start_timer0_ovf(); //start timer interrupt
 784:	86 dc       	rcall	.-1780   	; 0x92 <start_timer0_ovf>
	    set_timer10ms(TIMER_10MS_BTN_START, TIME_10ms_002s); //guardo se nei primi 20ms il pulsante Ë premuto
 786:	62 e0       	ldi	r22, 0x02	; 2
 788:	70 e0       	ldi	r23, 0x00	; 0
 78a:	80 e0       	ldi	r24, 0x00	; 0
 78c:	39 dd       	rcall	.-1422   	; 0x200 <set_timer10ms>
	    BYTE contatore_pulsante=0;
 78e:	c0 e0       	ldi	r28, 0x00	; 0
	    //digitalWrite(13, FALSE);
	    //BYTE test= eeprom_read_byte((BYTE*)0x01);
	    //if (test==3)
	    //digitalWrite(13, TRUE);
	    //while(1);
	while(!is_timer10ms_expired(TIMER_10MS_BTN_START))
 790:	05 c0       	rjmp	.+10     	; 0x79c <main+0x54>
	{

		if (BTN_PRESSED)
 792:	b4 99       	sbic	0x16, 4	; 22
 794:	03 c0       	rjmp	.+6      	; 0x79c <main+0x54>
			if (contatore_pulsante<200)
 796:	c8 3c       	cpi	r28, 0xC8	; 200
 798:	08 f4       	brcc	.+2      	; 0x79c <main+0x54>
				contatore_pulsante++;
 79a:	cf 5f       	subi	r28, 0xFF	; 255
	    //digitalWrite(13, FALSE);
	    //BYTE test= eeprom_read_byte((BYTE*)0x01);
	    //if (test==3)
	    //digitalWrite(13, TRUE);
	    //while(1);
	while(!is_timer10ms_expired(TIMER_10MS_BTN_START))
 79c:	80 e0       	ldi	r24, 0x00	; 0
 79e:	23 dd       	rcall	.-1466   	; 0x1e6 <is_timer10ms_expired>
 7a0:	88 23       	and	r24, r24
 7a2:	b9 f3       	breq	.-18     	; 0x792 <main+0x4a>

		if (BTN_PRESSED)
			if (contatore_pulsante<200)
				contatore_pulsante++;
	}
	if (contatore_pulsante > 7)
 7a4:	c8 30       	cpi	r28, 0x08	; 8
 7a6:	10 f0       	brcs	.+4      	; 0x7ac <main+0x64>
	{
		 init_button();
 7a8:	d7 de       	rcall	.-594    	; 0x558 <init_button>
 7aa:	04 c0       	rjmp	.+8      	; 0x7b4 <main+0x6c>
	}
	else
		set_timer10ms(TIMER_1S_STARTUP, 0); //per sicurezza lo metto a zero cosÏ non interviene nell'interrupt timer.
 7ac:	60 e0       	ldi	r22, 0x00	; 0
 7ae:	70 e0       	ldi	r23, 0x00	; 0
 7b0:	81 e0       	ldi	r24, 0x01	; 1
 7b2:	26 dd       	rcall	.-1460   	; 0x200 <set_timer10ms>
	
	address_n= eeprom_read_byte((BYTE*)0x01);
 7b4:	81 e0       	ldi	r24, 0x01	; 1
 7b6:	90 e0       	ldi	r25, 0x00	; 0
 7b8:	59 d0       	rcall	.+178    	; 0x86c <eeprom_read_byte>
 7ba:	80 93 86 01 	sts	0x0186, r24	; 0x800186 <address_n>
	if (address_n==0 || address_n >15)
 7be:	81 50       	subi	r24, 0x01	; 1
 7c0:	8f 30       	cpi	r24, 0x0F	; 15
 7c2:	c8 f0       	brcs	.+50     	; 0x7f6 <main+0xae>
 7c4:	c4 e1       	ldi	r28, 0x14	; 20
 7c6:	d0 e0       	ldi	r29, 0x00	; 0
					LED_LOW;
				}

				else
				{
					led_on=TRUE;
 7c8:	01 e0       	ldi	r16, 0x01	; 1
			{
				blink_count--;
				
				if (led_on)
				{
					led_on=FALSE;
 7ca:	10 e0       	ldi	r17, 0x00	; 0
		BYTE blink_count=20;
		BYTE led_on=FALSE;
		while (blink_count)
		{
			
			if (is_timer10ms_expired(TIMER_1S_LED))
 7cc:	82 e0       	ldi	r24, 0x02	; 2
 7ce:	0b dd       	rcall	.-1514   	; 0x1e6 <is_timer10ms_expired>
 7d0:	88 23       	and	r24, r24
 7d2:	71 f0       	breq	.+28     	; 0x7f0 <main+0xa8>
			{
				blink_count--;
				
				if (led_on)
 7d4:	dd 23       	and	r29, r29
 7d6:	19 f0       	breq	.+6      	; 0x7de <main+0x96>
				{
					led_on=FALSE;
					LED_LOW;
 7d8:	c3 98       	cbi	0x18, 3	; 24
			{
				blink_count--;
				
				if (led_on)
				{
					led_on=FALSE;
 7da:	d1 2f       	mov	r29, r17
 7dc:	02 c0       	rjmp	.+4      	; 0x7e2 <main+0x9a>
				}

				else
				{
					led_on=TRUE;
					LED_HIGH;
 7de:	c3 9a       	sbi	0x18, 3	; 24
					LED_LOW;
				}

				else
				{
					led_on=TRUE;
 7e0:	d0 2f       	mov	r29, r16
					LED_HIGH;
					
				}
				
				set_timer10ms(TIMER_1S_LED, TIME_10ms_01s); //timer ciclo main
 7e2:	6a e0       	ldi	r22, 0x0A	; 10
 7e4:	70 e0       	ldi	r23, 0x00	; 0
 7e6:	82 e0       	ldi	r24, 0x02	; 2
 7e8:	0b dd       	rcall	.-1514   	; 0x200 <set_timer10ms>
 7ea:	c1 50       	subi	r28, 0x01	; 1
	address_n= eeprom_read_byte((BYTE*)0x01);
	if (address_n==0 || address_n >15)
	{
		BYTE blink_count=20;
		BYTE led_on=FALSE;
		while (blink_count)
 7ec:	79 f7       	brne	.-34     	; 0x7cc <main+0x84>
 7ee:	02 c0       	rjmp	.+4      	; 0x7f4 <main+0xac>
 7f0:	c1 11       	cpse	r28, r1
 7f2:	ec cf       	rjmp	.-40     	; 0x7cc <main+0x84>
				set_timer10ms(TIMER_1S_LED, TIME_10ms_01s); //timer ciclo main
			}
			
			
		}
		go_to_sleep();
 7f4:	5b dc       	rcall	.-1866   	; 0xac <go_to_sleep>
	}
	
	
	prepara_adc();
 7f6:	26 dd       	rcall	.-1460   	; 0x244 <prepara_adc>

	battery_voltage_to_transmit= calcola_tensione_batteria();
 7f8:	44 dd       	rcall	.-1400   	; 0x282 <calcola_tensione_batteria>
 7fa:	80 93 65 01 	sts	0x0165, r24	; 0x800165 <battery_voltage_to_transmit>

    main_loop();
 7fe:	64 df       	rcall	.-312    	; 0x6c8 <main_loop>

00000800 <__udivmodhi4>:
 800:	aa 1b       	sub	r26, r26
 802:	bb 1b       	sub	r27, r27
 804:	51 e1       	ldi	r21, 0x11	; 17
 806:	07 c0       	rjmp	.+14     	; 0x816 <__udivmodhi4_ep>

00000808 <__udivmodhi4_loop>:
 808:	aa 1f       	adc	r26, r26
 80a:	bb 1f       	adc	r27, r27
 80c:	a6 17       	cp	r26, r22
 80e:	b7 07       	cpc	r27, r23
 810:	10 f0       	brcs	.+4      	; 0x816 <__udivmodhi4_ep>
 812:	a6 1b       	sub	r26, r22
 814:	b7 0b       	sbc	r27, r23

00000816 <__udivmodhi4_ep>:
 816:	88 1f       	adc	r24, r24
 818:	99 1f       	adc	r25, r25
 81a:	5a 95       	dec	r21
 81c:	a9 f7       	brne	.-22     	; 0x808 <__udivmodhi4_loop>
 81e:	80 95       	com	r24
 820:	90 95       	com	r25
 822:	bc 01       	movw	r22, r24
 824:	cd 01       	movw	r24, r26
 826:	08 95       	ret

00000828 <__udivmodsi4>:
 828:	a1 e2       	ldi	r26, 0x21	; 33
 82a:	1a 2e       	mov	r1, r26
 82c:	aa 1b       	sub	r26, r26
 82e:	bb 1b       	sub	r27, r27
 830:	fd 01       	movw	r30, r26
 832:	0d c0       	rjmp	.+26     	; 0x84e <__udivmodsi4_ep>

00000834 <__udivmodsi4_loop>:
 834:	aa 1f       	adc	r26, r26
 836:	bb 1f       	adc	r27, r27
 838:	ee 1f       	adc	r30, r30
 83a:	ff 1f       	adc	r31, r31
 83c:	a2 17       	cp	r26, r18
 83e:	b3 07       	cpc	r27, r19
 840:	e4 07       	cpc	r30, r20
 842:	f5 07       	cpc	r31, r21
 844:	20 f0       	brcs	.+8      	; 0x84e <__udivmodsi4_ep>
 846:	a2 1b       	sub	r26, r18
 848:	b3 0b       	sbc	r27, r19
 84a:	e4 0b       	sbc	r30, r20
 84c:	f5 0b       	sbc	r31, r21

0000084e <__udivmodsi4_ep>:
 84e:	66 1f       	adc	r22, r22
 850:	77 1f       	adc	r23, r23
 852:	88 1f       	adc	r24, r24
 854:	99 1f       	adc	r25, r25
 856:	1a 94       	dec	r1
 858:	69 f7       	brne	.-38     	; 0x834 <__udivmodsi4_loop>
 85a:	60 95       	com	r22
 85c:	70 95       	com	r23
 85e:	80 95       	com	r24
 860:	90 95       	com	r25
 862:	9b 01       	movw	r18, r22
 864:	ac 01       	movw	r20, r24
 866:	bd 01       	movw	r22, r26
 868:	cf 01       	movw	r24, r30
 86a:	08 95       	ret

0000086c <eeprom_read_byte>:
 86c:	e1 99       	sbic	0x1c, 1	; 28
 86e:	fe cf       	rjmp	.-4      	; 0x86c <eeprom_read_byte>
 870:	9f bb       	out	0x1f, r25	; 31
 872:	8e bb       	out	0x1e, r24	; 30
 874:	e0 9a       	sbi	0x1c, 0	; 28
 876:	99 27       	eor	r25, r25
 878:	8d b3       	in	r24, 0x1d	; 29
 87a:	08 95       	ret

0000087c <eeprom_write_byte>:
 87c:	26 2f       	mov	r18, r22

0000087e <eeprom_write_r18>:
 87e:	e1 99       	sbic	0x1c, 1	; 28
 880:	fe cf       	rjmp	.-4      	; 0x87e <eeprom_write_r18>
 882:	1c ba       	out	0x1c, r1	; 28
 884:	9f bb       	out	0x1f, r25	; 31
 886:	8e bb       	out	0x1e, r24	; 30
 888:	2d bb       	out	0x1d, r18	; 29
 88a:	0f b6       	in	r0, 0x3f	; 63
 88c:	f8 94       	cli
 88e:	e2 9a       	sbi	0x1c, 2	; 28
 890:	e1 9a       	sbi	0x1c, 1	; 28
 892:	0f be       	out	0x3f, r0	; 63
 894:	01 96       	adiw	r24, 0x01	; 1
 896:	08 95       	ret

00000898 <_exit>:
 898:	f8 94       	cli

0000089a <__stop_program>:
 89a:	ff cf       	rjmp	.-2      	; 0x89a <__stop_program>
